; Function Attrs: mustprogress nounwind uwtable
define hidden void @_ZN10PSYoungGen15update_countersEv(ptr nocapture noundef nonnull readonly align 8 dereferenceable(104) %0) local_unnamed_addr #0 align 2 {
  %2 = load i8, ptr @UsePerfData, align 1
  %3 = trunc i8 %2 to i1
  br i1 %3, label %4, label %54

4:                                                ; preds = %1
  %5 = getelementptr inbounds i8, ptr %0, i64 80
  %6 = load ptr, ptr %5, align 8
  tail call void @_ZN13SpaceCounters11update_usedEv(ptr noundef nonnull align 8 dereferenceable(40) %6) #9
  %7 = load ptr, ptr %6, align 8
  %8 = getelementptr inbounds i8, ptr %6, i64 24
  %9 = load ptr, ptr %8, align 8
  %10 = getelementptr inbounds i8, ptr %9, i64 48
  %11 = load ptr, ptr %10, align 8
  %12 = getelementptr inbounds i8, ptr %9, i64 32
  %13 = load ptr, ptr %12, align 8
  %14 = ptrtoint ptr %11 to i64
  %15 = ptrtoint ptr %13 to i64
  %16 = sub i64 %14, %15
  %17 = and i64 %16, -8
  %18 = getelementptr inbounds i8, ptr %7, i64 40
  %19 = load ptr, ptr %18, align 8
  store i64 %17, ptr %19, align 8
  %20 = getelementptr inbounds i8, ptr %0, i64 88
  %21 = load ptr, ptr %20, align 8
  tail call void @_ZN13SpaceCounters11update_usedEv(ptr noundef nonnull align 8 dereferenceable(40) %21) #9
  %22 = load ptr, ptr %21, align 8
  %23 = getelementptr inbounds i8, ptr %21, i64 24
  %24 = load ptr, ptr %23, align 8
  %25 = getelementptr inbounds i8, ptr %24, i64 48
  %26 = load ptr, ptr %25, align 8
  %27 = getelementptr inbounds i8, ptr %24, i64 32
  %28 = load ptr, ptr %27, align 8
  %29 = ptrtoint ptr %26 to i64
  %30 = ptrtoint ptr %28 to i64
  %31 = sub i64 %29, %30
  %32 = and i64 %31, -8
  %33 = getelementptr inbounds i8, ptr %22, i64 40
  %34 = load ptr, ptr %33, align 8
  store i64 %32, ptr %34, align 8
  %35 = getelementptr inbounds i8, ptr %0, i64 96
  %36 = load ptr, ptr %35, align 8
  tail call void @_ZN13SpaceCounters11update_usedEv(ptr noundef nonnull align 8 dereferenceable(40) %36) #9
  %37 = load ptr, ptr %36, align 8
  %38 = getelementptr inbounds i8, ptr %36, i64 24
  %39 = load ptr, ptr %38, align 8
  %40 = getelementptr inbounds i8, ptr %39, i64 48
  %41 = load ptr, ptr %40, align 8
  %42 = getelementptr inbounds i8, ptr %39, i64 32
  %43 = load ptr, ptr %42, align 8
  %44 = ptrtoint ptr %41 to i64
  %45 = ptrtoint ptr %43 to i64
  %46 = sub i64 %44, %45
  %47 = and i64 %46, -8
  %48 = getelementptr inbounds i8, ptr %37, i64 40
  %49 = load ptr, ptr %48, align 8
  store i64 %47, ptr %49, align 8
  %50 = getelementptr inbounds i8, ptr %0, i64 72
  %51 = load ptr, ptr %50, align 8
  %52 = load ptr, ptr %51, align 8
  %53 = load ptr, ptr %52, align 8
  tail call void %53(ptr noundef nonnull align 8 dereferenceable(40) %51) #9
  br label %54

54:                                               ; preds = %4, %1
  ret void
}